target datalayout = "e-m:e-p270:32:32-p271:32:32-p272:64:64-i64:64-i128:128-f80:128-n8:16:32:64-S128"
target triple = "x86_64-pc-linux-gnu"

%struct.hf_register_info = type { ptr, %struct._header_field_info }
%struct._header_field_info = type { ptr, ptr, i32, i32, ptr, i64, ptr, i32, i32, i32, i32, ptr }
%struct._header_field_t = type { ptr, ptr }

@proto_sip = internal global i32 0, align 4
@sip_custom_header_fields = internal global ptr null, align 8
@sip_custom_num_header_fields = internal global i32 0, align 4
@sip_custom_header_fields_hash = internal global ptr null, align 8
@dynamic_hf = internal global ptr null, align 8
@dynamic_hf_size = internal global i32 0, align 4
@.str.1091 = private unnamed_addr constant [7 x i8] c"sip.%s\00", align 1

; Function Attrs: null_pointer_is_valid sspstrong uwtable
define internal void @deregister_header_fields() #0 {
  %1 = alloca i32, align 4
  %2 = load ptr, ptr @dynamic_hf, align 8
  %3 = icmp ne ptr %2, null
  br i1 %3, label %4, label %30

4:                                                ; preds = %0
  call void @llvm.lifetime.start.p0(i64 4, ptr %1) #18
  store i32 0, ptr %1, align 4
  br label %5

5:                                                ; preds = %25, %4
  %6 = load i32, ptr %1, align 4
  %7 = load i32, ptr @dynamic_hf_size, align 4
  %8 = icmp ult i32 %6, %7
  br i1 %8, label %10, label %9

9:                                                ; preds = %5
  call void @llvm.lifetime.end.p0(i64 4, ptr %1) #18
  br label %28

10:                                               ; preds = %5
  %11 = load i32, ptr @proto_sip, align 4
  %12 = load ptr, ptr @dynamic_hf, align 8
  %13 = load i32, ptr %1, align 4
  %14 = zext i32 %13 to i64
  %15 = getelementptr %struct.hf_register_info, ptr %12, i64 %14
  %16 = getelementptr inbounds nuw %struct.hf_register_info, ptr %15, i32 0, i32 0
  %17 = load ptr, ptr %16, align 8
  %18 = load i32, ptr %17, align 4
  call void @proto_deregister_field(i32 noundef %11, i32 noundef %18)
  %19 = load ptr, ptr @dynamic_hf, align 8
  %20 = load i32, ptr %1, align 4
  %21 = zext i32 %20 to i64
  %22 = getelementptr %struct.hf_register_info, ptr %19, i64 %21
  %23 = getelementptr inbounds nuw %struct.hf_register_info, ptr %22, i32 0, i32 0
  %24 = load ptr, ptr %23, align 8
  call void @g_free(ptr noundef %24)
  br label %25

25:                                               ; preds = %10
  %26 = load i32, ptr %1, align 4
  %27 = add i32 %26, 1
  store i32 %27, ptr %1, align 4
  br label %5, !llvm.loop !66

28:                                               ; preds = %9
  %29 = load ptr, ptr @dynamic_hf, align 8
  call void @proto_add_deregistered_data(ptr noundef %29)
  store ptr null, ptr @dynamic_hf, align 8
  store i32 0, ptr @dynamic_hf_size, align 4
  br label %30

30:                                               ; preds = %28, %0
  %31 = load ptr, ptr @sip_custom_header_fields_hash, align 8
  %32 = icmp ne ptr %31, null
  br i1 %32, label %33, label %35

33:                                               ; preds = %30
  %34 = load ptr, ptr @sip_custom_header_fields_hash, align 8
  call void @g_hash_table_destroy(ptr noundef %34)
  store ptr null, ptr @sip_custom_header_fields_hash, align 8
  br label %35

35:                                               ; preds = %33, %30
  ret void
}

; Function Attrs: null_pointer_is_valid sspstrong uwtable
define internal void @header_fields_post_update_cb() #0 {
  %1 = alloca ptr, align 8
  %2 = alloca ptr, align 8
  %3 = alloca ptr, align 8
  %4 = alloca i64, align 8
  %5 = alloca i64, align 8
  %6 = alloca ptr, align 8
  %7 = alloca ptr, align 8
  %8 = alloca i32, align 4
  %9 = alloca i64, align 8
  %10 = alloca i64, align 8
  %11 = alloca ptr, align 8
  %12 = alloca ptr, align 8
  call void @llvm.lifetime.start.p0(i64 8, ptr %1) #18
  call void @llvm.lifetime.start.p0(i64 8, ptr %2) #18
  call void @llvm.lifetime.start.p0(i64 8, ptr %3) #18
  call void @deregister_header_fields()
  %13 = load i32, ptr @sip_custom_num_header_fields, align 4
  %14 = icmp ne i32 %13, 0
  br i1 %14, label %15, label %193

15:                                               ; preds = %0
  %16 = call ptr @g_hash_table_new_full(ptr noundef @g_str_hash, ptr noundef @g_str_equal, ptr noundef @g_free, ptr noundef null)
  store ptr %16, ptr @sip_custom_header_fields_hash, align 8
  call void @llvm.lifetime.start.p0(i64 8, ptr %4) #18
  %17 = load i32, ptr @sip_custom_num_header_fields, align 4
  %18 = zext i32 %17 to i64
  store i64 %18, ptr %4, align 8
  call void @llvm.lifetime.start.p0(i64 8, ptr %5) #18
  store i64 80, ptr %5, align 8
  call void @llvm.lifetime.start.p0(i64 8, ptr %6) #18
  %19 = load i64, ptr %5, align 8
  %20 = icmp eq i64 %19, 1
  br i1 %20, label %21, label %24

21:                                               ; preds = %15
  %22 = load i64, ptr %4, align 8
  %23 = call noalias ptr @g_malloc0(i64 noundef %22) #20
  store ptr %23, ptr %6, align 8
  br label %45

24:                                               ; preds = %15
  %25 = load i64, ptr %4, align 8
  %26 = call i1 @llvm.is.constant.i64(i64 %25)
  br i1 %26, label %27, label %40

27:                                               ; preds = %24
  %28 = load i64, ptr %5, align 8
  %29 = icmp eq i64 %28, 0
  br i1 %29, label %35, label %30

30:                                               ; preds = %27
  %31 = load i64, ptr %4, align 8
  %32 = load i64, ptr %5, align 8
  %33 = udiv i64 -1, %32
  %34 = icmp ule i64 %31, %33
  br i1 %34, label %35, label %40

35:                                               ; preds = %30, %27
  %36 = load i64, ptr %4, align 8
  %37 = load i64, ptr %5, align 8
  %38 = mul i64 %36, %37
  %39 = call noalias ptr @g_malloc0(i64 noundef %38) #20
  store ptr %39, ptr %6, align 8
  br label %44

40:                                               ; preds = %30, %24
  %41 = load i64, ptr %4, align 8
  %42 = load i64, ptr %5, align 8
  %43 = call noalias ptr @g_malloc0_n(i64 noundef %41, i64 noundef %42) #21
  store ptr %43, ptr %6, align 8
  br label %44

44:                                               ; preds = %40, %35
  br label %45

45:                                               ; preds = %44, %21
  %46 = load ptr, ptr %6, align 8
  store ptr %46, ptr %7, align 8
  call void @llvm.lifetime.end.p0(i64 8, ptr %6) #18
  call void @llvm.lifetime.end.p0(i64 8, ptr %5) #18
  call void @llvm.lifetime.end.p0(i64 8, ptr %4) #18
  %47 = load ptr, ptr %7, align 8
  store ptr %47, ptr @dynamic_hf, align 8
  %48 = load i32, ptr @sip_custom_num_header_fields, align 4
  store i32 %48, ptr @dynamic_hf_size, align 4
  call void @llvm.lifetime.start.p0(i64 4, ptr %8) #18
  store i32 0, ptr %8, align 4
  br label %49

49:                                               ; preds = %186, %45
  %50 = load i32, ptr %8, align 4
  %51 = load i32, ptr @dynamic_hf_size, align 4
  %52 = icmp ult i32 %50, %51
  br i1 %52, label %54, label %53

53:                                               ; preds = %49
  call void @llvm.lifetime.end.p0(i64 4, ptr %8) #18
  br label %189

54:                                               ; preds = %49
  call void @llvm.lifetime.start.p0(i64 8, ptr %9) #18
  store i64 1, ptr %9, align 8
  call void @llvm.lifetime.start.p0(i64 8, ptr %10) #18
  store i64 4, ptr %10, align 8
  call void @llvm.lifetime.start.p0(i64 8, ptr %11) #18
  %55 = load i64, ptr %10, align 8
  %56 = icmp eq i64 %55, 1
  br i1 %56, label %57, label %60

57:                                               ; preds = %54
  %58 = load i64, ptr %9, align 8
  %59 = call noalias ptr @g_malloc(i64 noundef %58) #20
  store ptr %59, ptr %11, align 8
  br label %81

60:                                               ; preds = %54
  %61 = load i64, ptr %9, align 8
  %62 = call i1 @llvm.is.constant.i64(i64 %61)
  br i1 %62, label %63, label %76

63:                                               ; preds = %60
  %64 = load i64, ptr %10, align 8
  %65 = icmp eq i64 %64, 0
  br i1 %65, label %71, label %66

66:                                               ; preds = %63
  %67 = load i64, ptr %9, align 8
  %68 = load i64, ptr %10, align 8
  %69 = udiv i64 -1, %68
  %70 = icmp ule i64 %67, %69
  br i1 %70, label %71, label %76

71:                                               ; preds = %66, %63
  %72 = load i64, ptr %9, align 8
  %73 = load i64, ptr %10, align 8
  %74 = mul i64 %72, %73
  %75 = call noalias ptr @g_malloc(i64 noundef %74) #20
  store ptr %75, ptr %11, align 8
  br label %80

76:                                               ; preds = %66, %60
  %77 = load i64, ptr %9, align 8
  %78 = load i64, ptr %10, align 8
  %79 = call noalias ptr @g_malloc_n(i64 noundef %77, i64 noundef %78) #21
  store ptr %79, ptr %11, align 8
  br label %80

80:                                               ; preds = %76, %71
  br label %81

81:                                               ; preds = %80, %57
  %82 = load ptr, ptr %11, align 8
  store ptr %82, ptr %12, align 8
  call void @llvm.lifetime.end.p0(i64 8, ptr %11) #18
  call void @llvm.lifetime.end.p0(i64 8, ptr %10) #18
  call void @llvm.lifetime.end.p0(i64 8, ptr %9) #18
  %83 = load ptr, ptr %12, align 8
  store ptr %83, ptr %1, align 8
  %84 = load ptr, ptr %1, align 8
  store i32 -1, ptr %84, align 4
  %85 = load ptr, ptr @sip_custom_header_fields, align 8
  %86 = load i32, ptr %8, align 4
  %87 = zext i32 %86 to i64
  %88 = getelementptr %struct._header_field_t, ptr %85, i64 %87
  %89 = getelementptr inbounds nuw %struct._header_field_t, ptr %88, i32 0, i32 0
  %90 = load ptr, ptr %89, align 8
  %91 = call noalias ptr @g_strdup(ptr noundef %90)
  store ptr %91, ptr %2, align 8
  %92 = load ptr, ptr %2, align 8
  %93 = call noalias ptr @g_ascii_strdown(ptr noundef %92, i64 noundef -1)
  store ptr %93, ptr %3, align 8
  %94 = load ptr, ptr %1, align 8
  %95 = load ptr, ptr @dynamic_hf, align 8
  %96 = load i32, ptr %8, align 4
  %97 = zext i32 %96 to i64
  %98 = getelementptr %struct.hf_register_info, ptr %95, i64 %97
  %99 = getelementptr inbounds nuw %struct.hf_register_info, ptr %98, i32 0, i32 0
  store ptr %94, ptr %99, align 8
  %100 = load ptr, ptr %2, align 8
  %101 = load ptr, ptr @dynamic_hf, align 8
  %102 = load i32, ptr %8, align 4
  %103 = zext i32 %102 to i64
  %104 = getelementptr %struct.hf_register_info, ptr %101, i64 %103
  %105 = getelementptr inbounds nuw %struct.hf_register_info, ptr %104, i32 0, i32 1
  %106 = getelementptr inbounds nuw %struct._header_field_info, ptr %105, i32 0, i32 0
  store ptr %100, ptr %106, align 8
  %107 = load ptr, ptr %2, align 8
  %108 = call noalias ptr (ptr, ptr, ...) @wmem_strdup_printf(ptr noundef null, ptr noundef @.str.1091, ptr noundef %107)
  %109 = load ptr, ptr @dynamic_hf, align 8
  %110 = load i32, ptr %8, align 4
  %111 = zext i32 %110 to i64
  %112 = getelementptr %struct.hf_register_info, ptr %109, i64 %111
  %113 = getelementptr inbounds nuw %struct.hf_register_info, ptr %112, i32 0, i32 1
  %114 = getelementptr inbounds nuw %struct._header_field_info, ptr %113, i32 0, i32 1
  store ptr %108, ptr %114, align 8
  %115 = load ptr, ptr @dynamic_hf, align 8
  %116 = load i32, ptr %8, align 4
  %117 = zext i32 %116 to i64
  %118 = getelementptr %struct.hf_register_info, ptr %115, i64 %117
  %119 = getelementptr inbounds nuw %struct.hf_register_info, ptr %118, i32 0, i32 1
  %120 = getelementptr inbounds nuw %struct._header_field_info, ptr %119, i32 0, i32 2
  store i32 26, ptr %120, align 8
  %121 = load ptr, ptr @dynamic_hf, align 8
  %122 = load i32, ptr %8, align 4
  %123 = zext i32 %122 to i64
  %124 = getelementptr %struct.hf_register_info, ptr %121, i64 %123
  %125 = getelementptr inbounds nuw %struct.hf_register_info, ptr %124, i32 0, i32 1
  %126 = getelementptr inbounds nuw %struct._header_field_info, ptr %125, i32 0, i32 3
  store i32 0, ptr %126, align 4
  %127 = load ptr, ptr @dynamic_hf, align 8
  %128 = load i32, ptr %8, align 4
  %129 = zext i32 %128 to i64
  %130 = getelementptr %struct.hf_register_info, ptr %127, i64 %129
  %131 = getelementptr inbounds nuw %struct.hf_register_info, ptr %130, i32 0, i32 1
  %132 = getelementptr inbounds nuw %struct._header_field_info, ptr %131, i32 0, i32 4
  store ptr null, ptr %132, align 8
  %133 = load ptr, ptr @dynamic_hf, align 8
  %134 = load i32, ptr %8, align 4
  %135 = zext i32 %134 to i64
  %136 = getelementptr %struct.hf_register_info, ptr %133, i64 %135
  %137 = getelementptr inbounds nuw %struct.hf_register_info, ptr %136, i32 0, i32 1
  %138 = getelementptr inbounds nuw %struct._header_field_info, ptr %137, i32 0, i32 5
  store i64 0, ptr %138, align 8
  %139 = load ptr, ptr @sip_custom_header_fields, align 8
  %140 = load i32, ptr %8, align 4
  %141 = zext i32 %140 to i64
  %142 = getelementptr %struct._header_field_t, ptr %139, i64 %141
  %143 = getelementptr inbounds nuw %struct._header_field_t, ptr %142, i32 0, i32 1
  %144 = load ptr, ptr %143, align 8
  %145 = call noalias ptr @g_strdup(ptr noundef %144)
  %146 = load ptr, ptr @dynamic_hf, align 8
  %147 = load i32, ptr %8, align 4
  %148 = zext i32 %147 to i64
  %149 = getelementptr %struct.hf_register_info, ptr %146, i64 %148
  %150 = getelementptr inbounds nuw %struct.hf_register_info, ptr %149, i32 0, i32 1
  %151 = getelementptr inbounds nuw %struct._header_field_info, ptr %150, i32 0, i32 6
  store ptr %145, ptr %151, align 8
  %152 = load ptr, ptr @dynamic_hf, align 8
  %153 = load i32, ptr %8, align 4
  %154 = zext i32 %153 to i64
  %155 = getelementptr %struct.hf_register_info, ptr %152, i64 %154
  %156 = getelementptr inbounds nuw %struct.hf_register_info, ptr %155, i32 0, i32 1
  %157 = getelementptr inbounds nuw %struct._header_field_info, ptr %156, i32 0, i32 7
  store i32 -1, ptr %157, align 8
  %158 = load ptr, ptr @dynamic_hf, align 8
  %159 = load i32, ptr %8, align 4
  %160 = zext i32 %159 to i64
  %161 = getelementptr %struct.hf_register_info, ptr %158, i64 %160
  %162 = getelementptr inbounds nuw %struct.hf_register_info, ptr %161, i32 0, i32 1
  %163 = getelementptr inbounds nuw %struct._header_field_info, ptr %162, i32 0, i32 8
  store i32 0, ptr %163, align 4
  %164 = load ptr, ptr @dynamic_hf, align 8
  %165 = load i32, ptr %8, align 4
  %166 = zext i32 %165 to i64
  %167 = getelementptr %struct.hf_register_info, ptr %164, i64 %166
  %168 = getelementptr inbounds nuw %struct.hf_register_info, ptr %167, i32 0, i32 1
  %169 = getelementptr inbounds nuw %struct._header_field_info, ptr %168, i32 0, i32 9
  store i32 0, ptr %169, align 8
  %170 = load ptr, ptr @dynamic_hf, align 8
  %171 = load i32, ptr %8, align 4
  %172 = zext i32 %171 to i64
  %173 = getelementptr %struct.hf_register_info, ptr %170, i64 %172
  %174 = getelementptr inbounds nuw %struct.hf_register_info, ptr %173, i32 0, i32 1
  %175 = getelementptr inbounds nuw %struct._header_field_info, ptr %174, i32 0, i32 10
  store i32 -1, ptr %175, align 4
  %176 = load ptr, ptr @dynamic_hf, align 8
  %177 = load i32, ptr %8, align 4
  %178 = zext i32 %177 to i64
  %179 = getelementptr %struct.hf_register_info, ptr %176, i64 %178
  %180 = getelementptr inbounds nuw %struct.hf_register_info, ptr %179, i32 0, i32 1
  %181 = getelementptr inbounds nuw %struct._header_field_info, ptr %180, i32 0, i32 11
  store ptr null, ptr %181, align 8
  %182 = load ptr, ptr @sip_custom_header_fields_hash, align 8
  %183 = load ptr, ptr %3, align 8
  %184 = load ptr, ptr %1, align 8
  %185 = call i32 @g_hash_table_insert(ptr noundef %182, ptr noundef %183, ptr noundef %184)
  br label %186

186:                                              ; preds = %81
  %187 = load i32, ptr %8, align 4
  %188 = add i32 %187, 1
  store i32 %188, ptr %8, align 4
  br label %49, !llvm.loop !16

189:                                              ; preds = %53
  %190 = load i32, ptr @proto_sip, align 4
  %191 = load ptr, ptr @dynamic_hf, align 8
  %192 = load i32, ptr @dynamic_hf_size, align 4
  call void @proto_register_field_array(i32 noundef %190, ptr noundef %191, i32 noundef %192)
  br label %193

193:                                              ; preds = %189, %0
  call void @llvm.lifetime.end.p0(i64 8, ptr %3) #18
  call void @llvm.lifetime.end.p0(i64 8, ptr %2) #18
  call void @llvm.lifetime.end.p0(i64 8, ptr %1) #18
  ret void
}