; Function Attrs: null_pointer_is_valid sspstrong uwtable
define internal void @header_fields_post_update_cb() #0 {
  %1 = load ptr, ptr @dynamic_hf, align 8
  %.not.i = icmp eq ptr %1, null
  br i1 %.not.i, label %15, label %.preheader.i

.preheader.i:                                     ; preds = %0
  %2 = load i32, ptr @dynamic_hf_size, align 4
  %.not7.i = icmp eq i32 %2, 0
  br i1 %.not7.i, label %._crit_edge.i, label %.lr.ph.i

._crit_edge.loopexit.i:                           ; preds = %.lr.ph.i
  %.pre.i = load ptr, ptr @dynamic_hf, align 8
  br label %._crit_edge.i

._crit_edge.i:                                    ; preds = %._crit_edge.loopexit.i, %.preheader.i
  %3 = phi ptr [ %.pre.i, %._crit_edge.loopexit.i ], [ %1, %.preheader.i ]
  tail call void @proto_add_deregistered_data(ptr noundef %3)
  store ptr null, ptr @dynamic_hf, align 8
  store i32 0, ptr @dynamic_hf_size, align 4
  br label %15

.lr.ph.i:                                         ; preds = %.preheader.i, %.lr.ph.i
  %indvars.iv.i = phi i64 [ %indvars.iv.next.i, %.lr.ph.i ], [ 0, %.preheader.i ]
  %4 = load i32, ptr @proto_sip, align 4
  %5 = load ptr, ptr @dynamic_hf, align 8
  %6 = getelementptr %struct.hf_register_info, ptr %5, i64 %indvars.iv.i
  %7 = load ptr, ptr %6, align 8
  %8 = load i32, ptr %7, align 4
  tail call void @proto_deregister_field(i32 noundef %4, i32 noundef %8)
  %9 = load ptr, ptr @dynamic_hf, align 8
  %10 = getelementptr %struct.hf_register_info, ptr %9, i64 %indvars.iv.i
  %11 = load ptr, ptr %10, align 8
  tail call void @g_free(ptr noundef %11)
  %indvars.iv.next.i = add nuw nsw i64 %indvars.iv.i, 1
  %12 = load i32, ptr @dynamic_hf_size, align 4
  %13 = zext i32 %12 to i64
  %14 = icmp samesign ult i64 %indvars.iv.next.i, %13
  br i1 %14, label %.lr.ph.i, label %._crit_edge.loopexit.i, !llvm.loop !16

15:                                               ; preds = %._crit_edge.i, %0
  %16 = load ptr, ptr @sip_custom_header_fields_hash, align 8
  %.not5.i = icmp eq ptr %16, null
  br i1 %.not5.i, label %deregister_header_fields.exit, label %17

17:                                               ; preds = %15
  tail call void @g_hash_table_destroy(ptr noundef nonnull %16)
  store ptr null, ptr @sip_custom_header_fields_hash, align 8
  br label %deregister_header_fields.exit

deregister_header_fields.exit:                    ; preds = %15, %17
  %18 = load i32, ptr @sip_custom_num_header_fields, align 4
  %.not = icmp eq i32 %18, 0
  br i1 %.not, label %57, label %19

19:                                               ; preds = %deregister_header_fields.exit
  %20 = tail call ptr @g_hash_table_new_full(ptr noundef nonnull @g_str_hash, ptr noundef nonnull @g_str_equal, ptr noundef nonnull @g_free, ptr noundef null)
  store ptr %20, ptr @sip_custom_header_fields_hash, align 8
  %21 = load i32, ptr @sip_custom_num_header_fields, align 4
  %22 = zext i32 %21 to i64
  %23 = tail call noalias ptr @g_malloc0_n(i64 noundef %22, i64 noundef 80) #20
  store ptr %23, ptr @dynamic_hf, align 8
  %24 = load i32, ptr @sip_custom_num_header_fields, align 4
  store i32 %24, ptr @dynamic_hf_size, align 4
  %.not51 = icmp eq i32 %24, 0
  br i1 %.not51, label %._crit_edge, label %.lr.ph

._crit_edge.loopexit:                             ; preds = %.lr.ph
  %.pre = load ptr, ptr @dynamic_hf, align 8
  br label %._crit_edge

._crit_edge:                                      ; preds = %._crit_edge.loopexit, %19
  %25 = phi ptr [ %23, %19 ], [ %.pre, %._crit_edge.loopexit ]
  %.lcssa = phi i32 [ 0, %19 ], [ %54, %._crit_edge.loopexit ]
  %26 = load i32, ptr @proto_sip, align 4
  tail call void @proto_register_field_array(i32 noundef %26, ptr noundef %25, i32 noundef %.lcssa)
  br label %57

.lr.ph:                                           ; preds = %19, %.lr.ph
  %indvars.iv = phi i64 [ %indvars.iv.next, %.lr.ph ], [ 0, %19 ]
  %27 = tail call noalias dereferenceable_or_null(4) ptr @g_malloc(i64 noundef 4) #21
  store i32 -1, ptr %27, align 4
  %28 = load ptr, ptr @sip_custom_header_fields, align 8
  %29 = getelementptr %struct._header_field_t, ptr %28, i64 %indvars.iv
  %30 = load ptr, ptr %29, align 8
  %31 = tail call noalias ptr @g_strdup(ptr noundef %30)
  %32 = tail call noalias ptr @g_ascii_strdown(ptr noundef %31, i64 noundef -1)
  %33 = load ptr, ptr @dynamic_hf, align 8
  %34 = getelementptr %struct.hf_register_info, ptr %33, i64 %indvars.iv
  store ptr %27, ptr %34, align 8
  %35 = getelementptr %struct.hf_register_info, ptr %33, i64 %indvars.iv, i32 1
  store ptr %31, ptr %35, align 8
  %36 = tail call noalias ptr (ptr, ptr, ...) @wmem_strdup_printf(ptr noundef null, ptr noundef nonnull @.str.1091, ptr noundef %31)
  %37 = load ptr, ptr @dynamic_hf, align 8
  %38 = getelementptr %struct.hf_register_info, ptr %37, i64 %indvars.iv, i32 1, i32 1
  store ptr %36, ptr %38, align 8
  %39 = getelementptr %struct.hf_register_info, ptr %37, i64 %indvars.iv, i32 1, i32 2
  store i32 26, ptr %39, align 8
  %40 = getelementptr %struct.hf_register_info, ptr %37, i64 %indvars.iv, i32 1, i32 3
  tail call void @llvm.memset.p0.i64(ptr noundef align 4 dereferenceable(20) %40, i8 0, i64 20, i1 false)
  %41 = load ptr, ptr @sip_custom_header_fields, align 8
  %42 = getelementptr %struct._header_field_t, ptr %41, i64 %indvars.iv, i32 1
  %43 = load ptr, ptr %42, align 8
  %44 = tail call noalias ptr @g_strdup(ptr noundef %43)
  %45 = load ptr, ptr @dynamic_hf, align 8
  %46 = getelementptr %struct.hf_register_info, ptr %45, i64 %indvars.iv, i32 1, i32 6
  store ptr %44, ptr %46, align 8
  %47 = getelementptr %struct.hf_register_info, ptr %45, i64 %indvars.iv, i32 1, i32 7
  store i32 -1, ptr %47, align 8
  %48 = getelementptr %struct.hf_register_info, ptr %45, i64 %indvars.iv, i32 1, i32 8
  store i32 0, ptr %48, align 4
  %49 = getelementptr %struct.hf_register_info, ptr %45, i64 %indvars.iv, i32 1, i32 9
  store i32 0, ptr %49, align 8
  %50 = getelementptr %struct.hf_register_info, ptr %45, i64 %indvars.iv, i32 1, i32 10
  store i32 -1, ptr %50, align 4
  %51 = getelementptr %struct.hf_register_info, ptr %45, i64 %indvars.iv, i32 1, i32 11
  store ptr null, ptr %51, align 8
  %52 = load ptr, ptr @sip_custom_header_fields_hash, align 8
  %53 = tail call i32 @g_hash_table_insert(ptr noundef %52, ptr noundef %32, ptr noundef %27)
  %indvars.iv.next = add nuw nsw i64 %indvars.iv, 1
  %54 = load i32, ptr @dynamic_hf_size, align 4
  %55 = zext i32 %54 to i64
  %56 = icmp samesign ult i64 %indvars.iv.next, %55
  br i1 %56, label %.lr.ph, label %._crit_edge.loopexit, !llvm.loop !17

57:                                               ; preds = %._crit_edge, %deregister_header_fields.exit
  ret void
}